target datalayout = "e-m:e-p270:32:32-p271:32:32-p272:64:64-i64:64-i128:128-f80:128-n8:16:32:64-S128"
target triple = "x86_64-unknown-linux-gnu"

%"class.cvc5::internal::theory::TheoryInferenceManager" = type { %"class.cvc5::internal::EnvObj", ptr, ptr, ptr, ptr, ptr, ptr, %"class.std::unique_ptr", %"class.std::unique_ptr.2", %"class.std::unique_ptr.10", %"class.std::unique_ptr.18", i8, %"class.cvc5::context::CDHashSet", %"class.cvc5::context::CDHashSet", i32, i32, i32, %"class.cvc5::internal::HistogramStat", %"class.cvc5::internal::HistogramStat", %"class.cvc5::internal::HistogramStat" }
%"class.cvc5::internal::EnvObj" = type { ptr, ptr }
%"class.std::unique_ptr" = type { %"struct.std::__uniq_ptr_data" }
%"struct.std::__uniq_ptr_data" = type { %"class.std::__uniq_ptr_impl" }
%"class.std::__uniq_ptr_impl" = type { %"class.std::tuple" }
%"class.std::tuple" = type { %"struct.std::_Tuple_impl" }
%"struct.std::_Tuple_impl" = type { %"struct.std::_Head_base.1" }
%"struct.std::_Head_base.1" = type { ptr }
%"class.std::unique_ptr.2" = type { %"struct.std::__uniq_ptr_data.3" }
%"struct.std::__uniq_ptr_data.3" = type { %"class.std::__uniq_ptr_impl.4" }
%"class.std::__uniq_ptr_impl.4" = type { %"class.std::tuple.5" }
%"class.std::tuple.5" = type { %"struct.std::_Tuple_impl.6" }
%"struct.std::_Tuple_impl.6" = type { %"struct.std::_Head_base.9" }
%"struct.std::_Head_base.9" = type { ptr }
%"class.std::unique_ptr.10" = type { %"struct.std::__uniq_ptr_data.11" }
%"struct.std::__uniq_ptr_data.11" = type { %"class.std::__uniq_ptr_impl.12" }
%"class.std::__uniq_ptr_impl.12" = type { %"class.std::tuple.13" }
%"class.std::tuple.13" = type { %"struct.std::_Tuple_impl.14" }
%"struct.std::_Tuple_impl.14" = type { %"struct.std::_Head_base.17" }
%"struct.std::_Head_base.17" = type { ptr }
%"class.std::unique_ptr.18" = type { %"struct.std::__uniq_ptr_data.19" }
%"struct.std::__uniq_ptr_data.19" = type { %"class.std::__uniq_ptr_impl.20" }
%"class.std::__uniq_ptr_impl.20" = type { %"class.std::tuple.21" }
%"class.std::tuple.21" = type { %"struct.std::_Tuple_impl.22" }
%"struct.std::_Tuple_impl.22" = type { %"struct.std::_Head_base.25" }
%"struct.std::_Head_base.25" = type { ptr }
%"class.cvc5::context::CDHashSet" = type { %"class.cvc5::context::CDInsertHashMap" }
%"class.cvc5::context::CDInsertHashMap" = type { %"class.cvc5::context::ContextObj", ptr, i64 }
%"class.cvc5::context::ContextObj" = type { ptr, ptr, ptr, ptr, ptr }
%"class.cvc5::internal::HistogramStat" = type { ptr }

; Function Attrs: mustprogress uwtable
define hidden noundef zeroext i1 @_ZNK4cvc58internal6theory22TheoryInferenceManager7hasSentEv(ptr noundef nonnull align 8 dereferenceable(256) %this) #4 align 2 {
entry:
  %this.addr = alloca ptr, align 8
  store ptr %this, ptr %this.addr, align 8
  %this1 = load ptr, ptr %this.addr, align 8
  %d_theoryState = getelementptr inbounds %"class.cvc5::internal::theory::TheoryInferenceManager", ptr %this1, i32 0, i32 2
  %0 = load ptr, ptr %d_theoryState, align 8
  %vtable = load ptr, ptr %0, align 8
  %vfn = getelementptr inbounds ptr, ptr %vtable, i64 9
  %1 = load ptr, ptr %vfn, align 8
  %call = call noundef zeroext i1 %1(ptr noundef nonnull align 8 dereferenceable(80) %0)
  br i1 %call, label %lor.end, label %lor.lhs.false

lor.lhs.false:                                    ; preds = %entry
  %d_numCurrentLemmas = getelementptr inbounds %"class.cvc5::internal::theory::TheoryInferenceManager", ptr %this1, i32 0, i32 15
  %2 = load i32, ptr %d_numCurrentLemmas, align 4
  %cmp = icmp ugt i32 %2, 0
  br i1 %cmp, label %lor.end, label %lor.rhs

lor.rhs:                                          ; preds = %lor.lhs.false
  %d_numCurrentFacts = getelementptr inbounds %"class.cvc5::internal::theory::TheoryInferenceManager", ptr %this1, i32 0, i32 16
  %3 = load i32, ptr %d_numCurrentFacts, align 8
  %cmp2 = icmp ugt i32 %3, 0
  br label %lor.end

lor.end:                                          ; preds = %lor.rhs, %lor.lhs.false, %entry
  %4 = phi i1 [ true, %lor.lhs.false ], [ true, %entry ], [ %cmp2, %lor.rhs ]
  ret i1 %4
}