; Function Attrs: mustprogress uwtable
define hidden noundef zeroext i1 @_ZNK4cvc58internal6theory22TheoryInferenceManager7hasSentEv(ptr nocapture noundef nonnull readonly align 8 dereferenceable(256) %this) local_unnamed_addr #3 align 2 {
entry:
  %d_theoryState = getelementptr inbounds i8, ptr %this, i64 24
  %0 = load ptr, ptr %d_theoryState, align 8
  %vtable = load ptr, ptr %0, align 8
  %vfn = getelementptr inbounds i8, ptr %vtable, i64 72
  %1 = load ptr, ptr %vfn, align 8
  %call = tail call noundef zeroext i1 %1(ptr noundef nonnull align 8 dereferenceable(80) %0)
  %d_numCurrentLemmas = getelementptr inbounds i8, ptr %this, i64 220
  %2 = load i32, ptr %d_numCurrentLemmas, align 4
  %cmp.not = icmp ne i32 %2, 0
  %or.cond.not = select i1 %call, i1 true, i1 %cmp.not
  br i1 %or.cond.not, label %lor.end, label %lor.rhs

lor.rhs:                                          ; preds = %entry
  %d_numCurrentFacts = getelementptr inbounds i8, ptr %this, i64 224
  %3 = load i32, ptr %d_numCurrentFacts, align 8
  %cmp2 = icmp ne i32 %3, 0
  br label %lor.end

lor.end:                                          ; preds = %lor.rhs, %entry
  %4 = phi i1 [ true, %entry ], [ %cmp2, %lor.rhs ]
  ret i1 %4
}